target datalayout = "e-m:e-p270:32:32-p271:32:32-p272:64:64-i64:64-i128:128-f80:128-n8:16:32:64-S128"
target triple = "x86_64-pc-linux-gnu"

%struct.UTrie = type { ptr, ptr, ptr, i32, i32, i32, i8 }

; Function Attrs: inlinehint mustprogress nounwind uwtable
define internal noundef signext i8 @_ZL9U_FAILURE10UErrorCode(i32 noundef %0) #7 {
  %2 = alloca i32, align 4
  store i32 %0, ptr %2, align 4, !tbaa !32
  %3 = load i32, ptr %2, align 4, !tbaa !32
  %4 = icmp sgt i32 %3, 0
  %5 = zext i1 %4 to i8
  ret i8 %5
}

; Function Attrs: mustprogress uwtable
define i32 @utrie_unserializeDummy_77(ptr noundef %0, ptr noundef %1, i32 noundef %2, i32 noundef %3, i32 noundef %4, i8 noundef signext %5, ptr noundef %6) #0 {
  %8 = alloca i32, align 4
  %9 = alloca ptr, align 8
  %10 = alloca ptr, align 8
  %11 = alloca i32, align 4
  %12 = alloca i32, align 4
  %13 = alloca i32, align 4
  %14 = alloca i8, align 1
  %15 = alloca ptr, align 8
  %16 = alloca ptr, align 8
  %17 = alloca i32, align 4
  %18 = alloca i32, align 4
  %19 = alloca i32, align 4
  %20 = alloca i32, align 4
  %21 = alloca i16, align 2
  %22 = alloca i32, align 4
  %23 = alloca ptr, align 8
  store ptr %0, ptr %9, align 8, !tbaa !56
  store ptr %1, ptr %10, align 8, !tbaa !31
  store i32 %2, ptr %11, align 4, !tbaa !10
  store i32 %3, ptr %12, align 4, !tbaa !10
  store i32 %4, ptr %13, align 4, !tbaa !10
  store i8 %5, ptr %14, align 1, !tbaa !12
  store ptr %6, ptr %15, align 8, !tbaa !31
  call void @llvm.lifetime.start.p0(i64 8, ptr %16) #8
  call void @llvm.lifetime.start.p0(i64 4, ptr %17) #8
  call void @llvm.lifetime.start.p0(i64 4, ptr %18) #8
  call void @llvm.lifetime.start.p0(i64 4, ptr %19) #8
  call void @llvm.lifetime.start.p0(i64 4, ptr %20) #8
  call void @llvm.lifetime.start.p0(i64 2, ptr %21) #8
  %24 = load ptr, ptr %15, align 8, !tbaa !31
  %25 = icmp eq ptr %24, null
  br i1 %25, label %31, label %26

26:                                               ; preds = %7
  %27 = load ptr, ptr %15, align 8, !tbaa !31
  %28 = load i32, ptr %27, align 4, !tbaa !32
  %29 = call noundef signext i8 @_ZL9U_FAILURE10UErrorCode(i32 noundef %28)
  %30 = icmp ne i8 %29, 0
  br i1 %30, label %31, label %32

31:                                               ; preds = %26, %7
  store i32 -1, ptr %8, align 4
  store i32 1, ptr %22, align 4
  br label %257

32:                                               ; preds = %26
  store i32 256, ptr %18, align 4, !tbaa !10
  %33 = load ptr, ptr %9, align 8, !tbaa !56
  %34 = getelementptr inbounds nuw %struct.UTrie, ptr %33, i32 0, i32 3
  store i32 2080, ptr %34, align 8, !tbaa !60
  %35 = load i32, ptr %18, align 4, !tbaa !10
  %36 = load ptr, ptr %9, align 8, !tbaa !56
  %37 = getelementptr inbounds nuw %struct.UTrie, ptr %36, i32 0, i32 4
  store i32 %35, ptr %37, align 4, !tbaa !61
  %38 = load i32, ptr %13, align 4, !tbaa !10
  %39 = load i32, ptr %12, align 4, !tbaa !10
  %40 = icmp ne i32 %38, %39
  br i1 %40, label %41, label %46

41:                                               ; preds = %32
  %42 = load ptr, ptr %9, align 8, !tbaa !56
  %43 = getelementptr inbounds nuw %struct.UTrie, ptr %42, i32 0, i32 4
  %44 = load i32, ptr %43, align 4, !tbaa !61
  %45 = add nsw i32 %44, 32
  store i32 %45, ptr %43, align 4, !tbaa !61
  br label %46

46:                                               ; preds = %41, %32
  %47 = load ptr, ptr %9, align 8, !tbaa !56
  %48 = getelementptr inbounds nuw %struct.UTrie, ptr %47, i32 0, i32 3
  %49 = load i32, ptr %48, align 8, !tbaa !60
  %50 = mul nsw i32 %49, 2
  store i32 %50, ptr %17, align 4, !tbaa !10
  %51 = load i8, ptr %14, align 1, !tbaa !12
  %52 = icmp ne i8 %51, 0
  br i1 %52, label %53, label %60

53:                                               ; preds = %46
  %54 = load ptr, ptr %9, align 8, !tbaa !56
  %55 = getelementptr inbounds nuw %struct.UTrie, ptr %54, i32 0, i32 4
  %56 = load i32, ptr %55, align 4, !tbaa !61
  %57 = mul nsw i32 %56, 2
  %58 = load i32, ptr %17, align 4, !tbaa !10
  %59 = add nsw i32 %58, %57
  store i32 %59, ptr %17, align 4, !tbaa !10
  br label %67

60:                                               ; preds = %46
  %61 = load ptr, ptr %9, align 8, !tbaa !56
  %62 = getelementptr inbounds nuw %struct.UTrie, ptr %61, i32 0, i32 4
  %63 = load i32, ptr %62, align 4, !tbaa !61
  %64 = mul nsw i32 %63, 4
  %65 = load i32, ptr %17, align 4, !tbaa !10
  %66 = add nsw i32 %65, %64
  store i32 %66, ptr %17, align 4, !tbaa !10
  br label %67

67:                                               ; preds = %60, %53
  %68 = load i32, ptr %11, align 4, !tbaa !10
  %69 = load i32, ptr %17, align 4, !tbaa !10
  %70 = icmp slt i32 %68, %69
  br i1 %70, label %71, label %74

71:                                               ; preds = %67
  %72 = load ptr, ptr %15, align 8, !tbaa !31
  store i32 15, ptr %72, align 4, !tbaa !32
  %73 = load i32, ptr %17, align 4, !tbaa !10
  store i32 %73, ptr %8, align 4
  store i32 1, ptr %22, align 4
  br label %257

74:                                               ; preds = %67
  %75 = load ptr, ptr %9, align 8, !tbaa !56
  %76 = getelementptr inbounds nuw %struct.UTrie, ptr %75, i32 0, i32 6
  store i8 1, ptr %76, align 4, !tbaa !58
  %77 = load i32, ptr %12, align 4, !tbaa !10
  %78 = load ptr, ptr %9, align 8, !tbaa !56
  %79 = getelementptr inbounds nuw %struct.UTrie, ptr %78, i32 0, i32 5
  store i32 %77, ptr %79, align 8, !tbaa !64
  %80 = load ptr, ptr %10, align 8, !tbaa !31
  store ptr %80, ptr %16, align 8, !tbaa !41
  %81 = load ptr, ptr %16, align 8, !tbaa !41
  %82 = load ptr, ptr %9, align 8, !tbaa !56
  %83 = getelementptr inbounds nuw %struct.UTrie, ptr %82, i32 0, i32 0
  store ptr %81, ptr %83, align 8, !tbaa !62
  %84 = load i8, ptr %14, align 1, !tbaa !12
  %85 = icmp ne i8 %84, 0
  br i1 %85, label %86, label %181

86:                                               ; preds = %74
  %87 = load ptr, ptr %9, align 8, !tbaa !56
  %88 = getelementptr inbounds nuw %struct.UTrie, ptr %87, i32 0, i32 3
  %89 = load i32, ptr %88, align 8, !tbaa !60
  %90 = ashr i32 %89, 2
  %91 = trunc i32 %90 to i16
  store i16 %91, ptr %21, align 2, !tbaa !43
  %92 = load ptr, ptr %9, align 8, !tbaa !56
  %93 = getelementptr inbounds nuw %struct.UTrie, ptr %92, i32 0, i32 3
  %94 = load i32, ptr %93, align 8, !tbaa !60
  store i32 %94, ptr %20, align 4, !tbaa !10
  store i32 0, ptr %19, align 4, !tbaa !10
  br label %95

95:                                               ; preds = %105, %86
  %96 = load i32, ptr %19, align 4, !tbaa !10
  %97 = load i32, ptr %20, align 4, !tbaa !10
  %98 = icmp slt i32 %96, %97
  br i1 %98, label %99, label %108

99:                                               ; preds = %95
  %100 = load i16, ptr %21, align 2, !tbaa !43
  %101 = load ptr, ptr %16, align 8, !tbaa !41
  %102 = load i32, ptr %19, align 4, !tbaa !10
  %103 = sext i32 %102 to i64
  %104 = getelementptr inbounds i16, ptr %101, i64 %103
  store i16 %100, ptr %104, align 2, !tbaa !43
  br label %105

105:                                              ; preds = %99
  %106 = load i32, ptr %19, align 4, !tbaa !10
  %107 = add nsw i32 %106, 1
  store i32 %107, ptr %19, align 4, !tbaa !10
  br label %95, !llvm.loop !66

108:                                              ; preds = %95
  %109 = load i32, ptr %13, align 4, !tbaa !10
  %110 = load i32, ptr %12, align 4, !tbaa !10
  %111 = icmp ne i32 %109, %110
  br i1 %111, label %112, label %135

112:                                              ; preds = %108
  %113 = load i32, ptr %18, align 4, !tbaa !10
  %114 = ashr i32 %113, 2
  %115 = trunc i32 %114 to i16
  %116 = zext i16 %115 to i32
  %117 = load i16, ptr %21, align 2, !tbaa !43
  %118 = zext i16 %117 to i32
  %119 = add nsw i32 %118, %116
  %120 = trunc i32 %119 to i16
  store i16 %120, ptr %21, align 2, !tbaa !43
  store i32 1728, ptr %19, align 4, !tbaa !10
  store i32 1760, ptr %20, align 4, !tbaa !10
  br label %121

121:                                              ; preds = %131, %112
  %122 = load i32, ptr %19, align 4, !tbaa !10
  %123 = load i32, ptr %20, align 4, !tbaa !10
  %124 = icmp slt i32 %122, %123
  br i1 %124, label %125, label %134

125:                                              ; preds = %121
  %126 = load i16, ptr %21, align 2, !tbaa !43
  %127 = load ptr, ptr %16, align 8, !tbaa !41
  %128 = load i32, ptr %19, align 4, !tbaa !10
  %129 = sext i32 %128 to i64
  %130 = getelementptr inbounds i16, ptr %127, i64 %129
  store i16 %126, ptr %130, align 2, !tbaa !43
  br label %131

131:                                              ; preds = %125
  %132 = load i32, ptr %19, align 4, !tbaa !10
  %133 = add nsw i32 %132, 1
  store i32 %133, ptr %19, align 4, !tbaa !10
  br label %121, !llvm.loop !67

134:                                              ; preds = %121
  br label %135

135:                                              ; preds = %134, %108
  %136 = load ptr, ptr %9, align 8, !tbaa !56
  %137 = getelementptr inbounds nuw %struct.UTrie, ptr %136, i32 0, i32 1
  store ptr null, ptr %137, align 8, !tbaa !63
  %138 = load ptr, ptr %9, align 8, !tbaa !56
  %139 = getelementptr inbounds nuw %struct.UTrie, ptr %138, i32 0, i32 3
  %140 = load i32, ptr %139, align 8, !tbaa !60
  %141 = load ptr, ptr %16, align 8, !tbaa !41
  %142 = sext i32 %140 to i64
  %143 = getelementptr inbounds i16, ptr %141, i64 %142
  store ptr %143, ptr %16, align 8, !tbaa !41
  store i32 0, ptr %19, align 4, !tbaa !10
  br label %144

144:                                              ; preds = %155, %135
  %145 = load i32, ptr %19, align 4, !tbaa !10
  %146 = load i32, ptr %18, align 4, !tbaa !10
  %147 = icmp slt i32 %145, %146
  br i1 %147, label %148, label %158

148:                                              ; preds = %144
  %149 = load i32, ptr %12, align 4, !tbaa !10
  %150 = trunc i32 %149 to i16
  %151 = load ptr, ptr %16, align 8, !tbaa !41
  %152 = load i32, ptr %19, align 4, !tbaa !10
  %153 = sext i32 %152 to i64
  %154 = getelementptr inbounds i16, ptr %151, i64 %153
  store i16 %150, ptr %154, align 2, !tbaa !43
  br label %155

155:                                              ; preds = %148
  %156 = load i32, ptr %19, align 4, !tbaa !10
  %157 = add nsw i32 %156, 1
  store i32 %157, ptr %19, align 4, !tbaa !10
  br label %144, !llvm.loop !68

158:                                              ; preds = %144
  %159 = load i32, ptr %13, align 4, !tbaa !10
  %160 = load i32, ptr %12, align 4, !tbaa !10
  %161 = icmp ne i32 %159, %160
  br i1 %161, label %162, label %180

162:                                              ; preds = %158
  %163 = load i32, ptr %18, align 4, !tbaa !10
  %164 = add nsw i32 %163, 32
  store i32 %164, ptr %20, align 4, !tbaa !10
  br label %165

165:                                              ; preds = %176, %162
  %166 = load i32, ptr %19, align 4, !tbaa !10
  %167 = load i32, ptr %20, align 4, !tbaa !10
  %168 = icmp slt i32 %166, %167
  br i1 %168, label %169, label %179

169:                                              ; preds = %165
  %170 = load i32, ptr %13, align 4, !tbaa !10
  %171 = trunc i32 %170 to i16
  %172 = load ptr, ptr %16, align 8, !tbaa !41
  %173 = load i32, ptr %19, align 4, !tbaa !10
  %174 = sext i32 %173 to i64
  %175 = getelementptr inbounds i16, ptr %172, i64 %174
  store i16 %171, ptr %175, align 2, !tbaa !43
  br label %176

176:                                              ; preds = %169
  %177 = load i32, ptr %19, align 4, !tbaa !10
  %178 = add nsw i32 %177, 1
  store i32 %178, ptr %19, align 4, !tbaa !10
  br label %165, !llvm.loop !69

179:                                              ; preds = %165
  br label %180

180:                                              ; preds = %179, %158
  br label %253

181:                                              ; preds = %74
  call void @llvm.lifetime.start.p0(i64 8, ptr %23) #8
  %182 = load ptr, ptr %16, align 8, !tbaa !41
  %183 = load ptr, ptr %9, align 8, !tbaa !56
  %184 = getelementptr inbounds nuw %struct.UTrie, ptr %183, i32 0, i32 3
  %185 = load i32, ptr %184, align 8, !tbaa !60
  %186 = mul nsw i32 %185, 2
  %187 = sext i32 %186 to i64
  call void @llvm.memset.p0.i64(ptr align 2 %182, i8 0, i64 %187, i1 false)
  %188 = load i32, ptr %13, align 4, !tbaa !10
  %189 = load i32, ptr %12, align 4, !tbaa !10
  %190 = icmp ne i32 %188, %189
  br i1 %190, label %191, label %209

191:                                              ; preds = %181
  %192 = load i32, ptr %18, align 4, !tbaa !10
  %193 = ashr i32 %192, 2
  %194 = trunc i32 %193 to i16
  store i16 %194, ptr %21, align 2, !tbaa !43
  store i32 1728, ptr %19, align 4, !tbaa !10
  store i32 1760, ptr %20, align 4, !tbaa !10
  br label %195

195:                                              ; preds = %205, %191
  %196 = load i32, ptr %19, align 4, !tbaa !10
  %197 = load i32, ptr %20, align 4, !tbaa !10
  %198 = icmp slt i32 %196, %197
  br i1 %198, label %199, label %208

199:                                              ; preds = %195
  %200 = load i16, ptr %21, align 2, !tbaa !43
  %201 = load ptr, ptr %16, align 8, !tbaa !41
  %202 = load i32, ptr %19, align 4, !tbaa !10
  %203 = sext i32 %202 to i64
  %204 = getelementptr inbounds i16, ptr %201, i64 %203
  store i16 %200, ptr %204, align 2, !tbaa !43
  br label %205

205:                                              ; preds = %199
  %206 = load i32, ptr %19, align 4, !tbaa !10
  %207 = add nsw i32 %206, 1
  store i32 %207, ptr %19, align 4, !tbaa !10
  br label %195, !llvm.loop !70

208:                                              ; preds = %195
  br label %209

209:                                              ; preds = %208, %181
  %210 = load ptr, ptr %16, align 8, !tbaa !41
  %211 = load ptr, ptr %9, align 8, !tbaa !56
  %212 = getelementptr inbounds nuw %struct.UTrie, ptr %211, i32 0, i32 3
  %213 = load i32, ptr %212, align 8, !tbaa !60
  %214 = sext i32 %213 to i64
  %215 = getelementptr inbounds i16, ptr %210, i64 %214
  store ptr %215, ptr %23, align 8, !tbaa !8
  %216 = load ptr, ptr %9, align 8, !tbaa !56
  %217 = getelementptr inbounds nuw %struct.UTrie, ptr %216, i32 0, i32 1
  store ptr %215, ptr %217, align 8, !tbaa !63
  store i32 0, ptr %19, align 4, !tbaa !10
  br label %218

218:                                              ; preds = %228, %209
  %219 = load i32, ptr %19, align 4, !tbaa !10
  %220 = load i32, ptr %18, align 4, !tbaa !10
  %221 = icmp slt i32 %219, %220
  br i1 %221, label %222, label %231

222:                                              ; preds = %218
  %223 = load i32, ptr %12, align 4, !tbaa !10
  %224 = load ptr, ptr %23, align 8, !tbaa !8
  %225 = load i32, ptr %19, align 4, !tbaa !10
  %226 = sext i32 %225 to i64
  %227 = getelementptr inbounds i32, ptr %224, i64 %226
  store i32 %223, ptr %227, align 4, !tbaa !10
  br label %228

228:                                              ; preds = %222
  %229 = load i32, ptr %19, align 4, !tbaa !10
  %230 = add nsw i32 %229, 1
  store i32 %230, ptr %19, align 4, !tbaa !10
  br label %218, !llvm.loop !71

231:                                              ; preds = %218
  %232 = load i32, ptr %13, align 4, !tbaa !10
  %233 = load i32, ptr %12, align 4, !tbaa !10
  %234 = icmp ne i32 %232, %233
  br i1 %234, label %235, label %252

235:                                              ; preds = %231
  %236 = load i32, ptr %18, align 4, !tbaa !10
  %237 = add nsw i32 %236, 32
  store i32 %237, ptr %20, align 4, !tbaa !10
  br label %238

238:                                              ; preds = %248, %235
  %239 = load i32, ptr %19, align 4, !tbaa !10
  %240 = load i32, ptr %20, align 4, !tbaa !10
  %241 = icmp slt i32 %239, %240
  br i1 %241, label %242, label %251

242:                                              ; preds = %238
  %243 = load i32, ptr %13, align 4, !tbaa !10
  %244 = load ptr, ptr %23, align 8, !tbaa !8
  %245 = load i32, ptr %19, align 4, !tbaa !10
  %246 = sext i32 %245 to i64
  %247 = getelementptr inbounds i32, ptr %244, i64 %246
  store i32 %243, ptr %247, align 4, !tbaa !10
  br label %248

248:                                              ; preds = %242
  %249 = load i32, ptr %19, align 4, !tbaa !10
  %250 = add nsw i32 %249, 1
  store i32 %250, ptr %19, align 4, !tbaa !10
  br label %238, !llvm.loop !72

251:                                              ; preds = %238
  br label %252

252:                                              ; preds = %251, %231
  call void @llvm.lifetime.end.p0(i64 8, ptr %23) #8
  br label %253

253:                                              ; preds = %252, %180
  %254 = load ptr, ptr %9, align 8, !tbaa !56
  %255 = getelementptr inbounds nuw %struct.UTrie, ptr %254, i32 0, i32 2
  store ptr @utrie_defaultGetFoldingOffset_77, ptr %255, align 8, !tbaa !65
  %256 = load i32, ptr %17, align 4, !tbaa !10
  store i32 %256, ptr %8, align 4
  store i32 1, ptr %22, align 4
  br label %257

257:                                              ; preds = %253, %71, %31
  call void @llvm.lifetime.end.p0(i64 2, ptr %21) #8
  call void @llvm.lifetime.end.p0(i64 4, ptr %20) #8
  call void @llvm.lifetime.end.p0(i64 4, ptr %19) #8
  call void @llvm.lifetime.end.p0(i64 4, ptr %18) #8
  call void @llvm.lifetime.end.p0(i64 4, ptr %17) #8
  call void @llvm.lifetime.end.p0(i64 8, ptr %16) #8
  %258 = load i32, ptr %8, align 4
  ret i32 %258
}