; Function Attrs: mustprogress nofree norecurse nosync nounwind memory(argmem: readwrite) uwtable
define range(i32 -1, 5376) i32 @utrie_unserializeDummy_77(ptr noundef captures(none) %0, ptr noundef %1, i32 noundef %2, i32 noundef %3, i32 noundef %4, i8 noundef signext %5, ptr noundef %6) local_unnamed_addr #12 {
  %8 = icmp eq ptr %6, null
  br i1 %8, label %52, label %9

9:                                                ; preds = %7
  %10 = load i32, ptr %6, align 4, !tbaa !26
  %11 = icmp slt i32 %10, 1
  br i1 %11, label %12, label %52

12:                                               ; preds = %9
  %13 = getelementptr inbounds nuw i8, ptr %0, i64 24
  store i32 2080, ptr %13, align 8, !tbaa !54
  %14 = getelementptr inbounds nuw i8, ptr %0, i64 28
  %.not97.not = icmp eq i32 %4, %3
  %spec.select = select i1 %.not97.not, i32 256, i32 288
  store i32 %spec.select, ptr %14, align 4, !tbaa !55
  %.not98 = icmp eq i8 %5, 0
  br i1 %.not98, label %15, label %.thread

15:                                               ; preds = %12
  %16 = shl nuw nsw i32 %spec.select, 2
  %17 = or disjoint i32 %16, 4160
  %18 = icmp slt i32 %2, %17
  br i1 %18, label %22, label %39

.thread:                                          ; preds = %12
  %19 = shl nuw nsw i32 %spec.select, 1
  %20 = add nuw nsw i32 %19, 4160
  %21 = icmp slt i32 %2, %20
  br i1 %21, label %22, label %23

22:                                               ; preds = %.thread, %15
  %.093100 = phi i32 [ %20, %.thread ], [ %17, %15 ]
  store i32 15, ptr %6, align 4, !tbaa !26
  br label %52

23:                                               ; preds = %.thread
  %24 = getelementptr inbounds nuw i8, ptr %0, i64 36
  store i8 1, ptr %24, align 4, !tbaa !51
  %25 = getelementptr inbounds nuw i8, ptr %0, i64 32
  store i32 %3, ptr %25, align 8, !tbaa !58
  store ptr %1, ptr %0, align 8, !tbaa !56
  br label %26

26:                                               ; preds = %23, %26
  %indvars.iv = phi i64 [ 0, %23 ], [ %indvars.iv.next, %26 ]
  %27 = getelementptr inbounds nuw i16, ptr %1, i64 %indvars.iv
  store i16 520, ptr %27, align 2, !tbaa !37
  %indvars.iv.next = add nuw nsw i64 %indvars.iv, 1
  %exitcond.not = icmp eq i64 %indvars.iv.next, 2080
  br i1 %exitcond.not, label %28, label %26, !llvm.loop !60

28:                                               ; preds = %26
  br i1 %.not97.not, label %.loopexit111, label %.preheader110

.preheader110:                                    ; preds = %28, %.preheader110
  %indvars.iv125 = phi i64 [ %indvars.iv.next126, %.preheader110 ], [ 1728, %28 ]
  %29 = getelementptr inbounds nuw i16, ptr %1, i64 %indvars.iv125
  store i16 584, ptr %29, align 2, !tbaa !37
  %indvars.iv.next126 = add nuw nsw i64 %indvars.iv125, 1
  %exitcond128.not = icmp eq i64 %indvars.iv.next126, 1760
  br i1 %exitcond128.not, label %.loopexit111, label %.preheader110, !llvm.loop !61

.loopexit111:                                     ; preds = %.preheader110, %28
  %30 = getelementptr inbounds nuw i8, ptr %0, i64 8
  store ptr null, ptr %30, align 8, !tbaa !57
  %31 = getelementptr inbounds nuw i8, ptr %1, i64 4160
  %32 = trunc i32 %3 to i16
  br label %33

33:                                               ; preds = %.loopexit111, %33
  %indvars.iv129 = phi i64 [ 0, %.loopexit111 ], [ %indvars.iv.next130, %33 ]
  %34 = getelementptr inbounds nuw i16, ptr %31, i64 %indvars.iv129
  store i16 %32, ptr %34, align 2, !tbaa !37
  %indvars.iv.next130 = add nuw nsw i64 %indvars.iv129, 1
  %exitcond132.not = icmp eq i64 %indvars.iv.next130, 256
  br i1 %exitcond132.not, label %35, label %33, !llvm.loop !62

35:                                               ; preds = %33
  br i1 %.not97.not, label %.loopexit, label %.lr.ph

.lr.ph:                                           ; preds = %35
  %36 = trunc i32 %4 to i16
  br label %37

37:                                               ; preds = %.lr.ph, %37
  %indvars.iv133 = phi i64 [ 256, %.lr.ph ], [ %indvars.iv.next134, %37 ]
  %38 = getelementptr inbounds nuw i16, ptr %31, i64 %indvars.iv133
  store i16 %36, ptr %38, align 2, !tbaa !37
  %indvars.iv.next134 = add nuw nsw i64 %indvars.iv133, 1
  %exitcond136.not = icmp eq i64 %indvars.iv.next134, 288
  br i1 %exitcond136.not, label %.loopexit, label %37, !llvm.loop !63

39:                                               ; preds = %15
  %40 = getelementptr inbounds nuw i8, ptr %0, i64 36
  store i8 1, ptr %40, align 4, !tbaa !51
  %41 = getelementptr inbounds nuw i8, ptr %0, i64 32
  store i32 %3, ptr %41, align 8, !tbaa !58
  store ptr %1, ptr %0, align 8, !tbaa !56
  tail call void @llvm.memset.p0.i64(ptr noundef nonnull align 2 dereferenceable(4160) %1, i8 0, i64 4160, i1 false)
  br i1 %.not97.not, label %.loopexit107, label %.preheader106

.preheader106:                                    ; preds = %39, %.preheader106
  %indvars.iv137 = phi i64 [ %indvars.iv.next138, %.preheader106 ], [ 1728, %39 ]
  %42 = getelementptr inbounds nuw i16, ptr %1, i64 %indvars.iv137
  store i16 64, ptr %42, align 2, !tbaa !37
  %indvars.iv.next138 = add nuw nsw i64 %indvars.iv137, 1
  %exitcond140.not = icmp eq i64 %indvars.iv.next138, 1760
  br i1 %exitcond140.not, label %.loopexit107, label %.preheader106, !llvm.loop !64

.loopexit107:                                     ; preds = %.preheader106, %39
  %43 = load i32, ptr %13, align 8, !tbaa !54
  %44 = sext i32 %43 to i64
  %45 = getelementptr inbounds i16, ptr %1, i64 %44
  %46 = getelementptr inbounds nuw i8, ptr %0, i64 8
  store ptr %45, ptr %46, align 8, !tbaa !57
  br label %47

47:                                               ; preds = %.loopexit107, %47
  %indvars.iv141 = phi i64 [ 0, %.loopexit107 ], [ %indvars.iv.next142, %47 ]
  %48 = getelementptr inbounds nuw i32, ptr %45, i64 %indvars.iv141
  store i32 %3, ptr %48, align 4, !tbaa !12
  %indvars.iv.next142 = add nuw nsw i64 %indvars.iv141, 1
  %exitcond144.not = icmp eq i64 %indvars.iv.next142, 256
  br i1 %exitcond144.not, label %49, label %47, !llvm.loop !65

49:                                               ; preds = %47
  br i1 %.not97.not, label %.loopexit, label %.lr.ph119

.lr.ph119:                                        ; preds = %49, %.lr.ph119
  %indvars.iv145 = phi i64 [ %indvars.iv.next146, %.lr.ph119 ], [ 256, %49 ]
  %50 = getelementptr inbounds nuw i32, ptr %45, i64 %indvars.iv145
  store i32 %4, ptr %50, align 4, !tbaa !12
  %indvars.iv.next146 = add nuw nsw i64 %indvars.iv145, 1
  %exitcond148.not = icmp eq i64 %indvars.iv.next146, 288
  br i1 %exitcond148.not, label %.loopexit, label %.lr.ph119, !llvm.loop !66

.loopexit:                                        ; preds = %37, %.lr.ph119, %49, %35
  %.093101104 = phi i32 [ %17, %49 ], [ %20, %35 ], [ %17, %.lr.ph119 ], [ %20, %37 ]
  %51 = getelementptr inbounds nuw i8, ptr %0, i64 16
  store ptr @utrie_defaultGetFoldingOffset_77, ptr %51, align 8, !tbaa !59
  br label %52

52:                                               ; preds = %7, %9, %.loopexit, %22
  %.0 = phi i32 [ %.093100, %22 ], [ %.093101104, %.loopexit ], [ -1, %9 ], [ -1, %7 ]
  ret i32 %.0
}